target datalayout = "e-m:e-p270:32:32-p271:32:32-p272:64:64-i64:64-i128:128-f80:128-n8:16:32:64-S128"
target triple = "x86_64-pc-linux-gnu"

%struct.slurm_conf_t = type { i64, ptr, i16, ptr, ptr, ptr, ptr, ptr, i16, ptr, ptr, ptr, ptr, ptr, ptr, ptr, i16, ptr, ptr, ptr, ptr, i16, ptr, ptr, ptr, i64, ptr, ptr, ptr, ptr, i16, ptr, ptr, i16, i32, ptr, i32, ptr, i32, i32, ptr, ptr, i64, i64, ptr, i16, i16, ptr, i32, i32, ptr, i32, ptr, i32, i16, i16, i16, ptr, i16, i16, ptr, ptr, i32, i16, i16, ptr, i32, i16, ptr, ptr, ptr, ptr, i16, ptr, ptr, ptr, ptr, i32, ptr, ptr, ptr, ptr, i16, i16, ptr, i32, i32, i32, i16, i16, ptr, ptr, i16, ptr, ptr, i32, i32, i32, i32, i32, i64, i32, i32, i16, ptr, ptr, i32, ptr, ptr, ptr, i16, i32, ptr, ptr, i16, ptr, ptr, i32, i16, ptr, ptr, ptr, ptr, i32, i32, i16, i16, i32, ptr, i16, ptr, i32, i32, i32, i32, i32, i32, ptr, i16, ptr, ptr, i32, i16, ptr, i32, i16, i16, ptr, ptr, ptr, i16, ptr, ptr, ptr, ptr, i16, i16, ptr, i16, ptr, i16, ptr, i16, ptr, i16, ptr, ptr, ptr, ptr, i16, ptr, ptr, ptr, i32, ptr, i32, ptr, ptr, i16, ptr, ptr, i32, i16, ptr, ptr, i16, i16, ptr, i16, ptr, ptr, ptr, i32, ptr, i16, i16, ptr, ptr, ptr, ptr, ptr, ptr, ptr, ptr, i16, i32, i16, ptr, ptr, ptr, ptr, i32, ptr, ptr, ptr, i16, ptr, ptr, ptr, i16, ptr, i16, ptr, i16, i16, ptr }
%struct.valid_feature_args_t = type { ptr, ptr }

@plugin_type = dso_local constant [22 x i8] c"node_features/helpers\00", align 16
@.str.1 = private unnamed_addr constant [4 x i8] c"[]*\00", align 1
@slurm_conf = external global %struct.slurm_conf_t, align 8
@.str.11 = private unnamed_addr constant [85 x i8] c"%s: %s: an unsupported constraint operator was used in \22%s\22, clearing job constraint\00", align 1
@__func__.node_features_p_job_xlate = private unnamed_addr constant [26 x i8] c"node_features_p_job_xlate\00", align 1
@.str.47 = private unnamed_addr constant [75 x i8] c"%s: %s: NODE_FEATURES: Find a valid feature combination for %s on nodes %s\00", align 1
@__func__._xlate_job_features = private unnamed_addr constant [20 x i8] c"_xlate_job_features\00", align 1
@.str.48 = private unnamed_addr constant [44 x i8] c"%s: %s: NODE_FEATURES: final_feature_str=%s\00", align 1
@.str.49 = private unnamed_addr constant [92 x i8] c"Failed to translate feature request '%s' into features that match with the job's nodes '%s'\00", align 1

; Function Attrs: nounwind uwtable
define internal ptr @_xlate_job_features(ptr noundef %0, ptr noundef %1, ptr noundef %2) #0 {
  %4 = alloca ptr, align 8
  %5 = alloca ptr, align 8
  %6 = alloca ptr, align 8
  %7 = alloca ptr, align 8
  %8 = alloca %struct.valid_feature_args_t, align 8
  %9 = alloca ptr, align 8
  %10 = alloca ptr, align 8
  store ptr %0, ptr %4, align 8
  store ptr %1, ptr %5, align 8
  store ptr %2, ptr %6, align 8
  call void @llvm.lifetime.start.p0(i64 8, ptr %7) #8
  call void @llvm.lifetime.start.p0(i64 16, ptr %8) #8
  %11 = getelementptr inbounds nuw %struct.valid_feature_args_t, ptr %8, i32 0, i32 0
  store ptr null, ptr %11, align 8
  %12 = getelementptr inbounds nuw %struct.valid_feature_args_t, ptr %8, i32 0, i32 1
  %13 = load ptr, ptr %6, align 8
  store ptr %13, ptr %12, align 8
  %14 = load i64, ptr getelementptr inbounds nuw (%struct.slurm_conf_t, ptr @slurm_conf, i32 0, i32 42), align 8
  %15 = and i64 %14, 140737488355328
  %16 = icmp ne i64 %15, 0
  br i1 %16, label %17, label %37

17:                                               ; preds = %3
  call void @llvm.lifetime.start.p0(i64 8, ptr %9) #8
  %18 = load ptr, ptr %6, align 8
  %19 = call ptr @bitmap2node_name(ptr noundef %18)
  store ptr %19, ptr %9, align 8
  br label %20

20:                                               ; preds = %17
  %21 = load i64, ptr getelementptr inbounds nuw (%struct.slurm_conf_t, ptr @slurm_conf, i32 0, i32 42), align 8
  %22 = and i64 %21, 140737488355328
  %23 = icmp ne i64 %22, 0
  br i1 %23, label %24, label %34

24:                                               ; preds = %20
  br label %25

25:                                               ; preds = %24
  %26 = call i32 @get_log_level()
  %27 = icmp sge i32 %26, 4
  br i1 %27, label %28, label %31

28:                                               ; preds = %25
  %29 = load ptr, ptr %4, align 8
  %30 = load ptr, ptr %9, align 8
  call void (i32, ptr, ...) @log_var(i32 noundef 4, ptr noundef @.str.47, ptr noundef @plugin_type, ptr noundef @__func__._xlate_job_features, ptr noundef %29, ptr noundef %30)
  br label %31

31:                                               ; preds = %28, %25
  br label %32

32:                                               ; preds = %31
  br label %33

33:                                               ; preds = %32
  br label %34

34:                                               ; preds = %33, %20
  br label %35

35:                                               ; preds = %34
  br label %36

36:                                               ; preds = %35
  call void @slurm_xfree(ptr noundef %9)
  call void @llvm.lifetime.end.p0(i64 8, ptr %9) #8
  br label %37

37:                                               ; preds = %36, %3
  %38 = load ptr, ptr %4, align 8
  %39 = load ptr, ptr %5, align 8
  %40 = call ptr @job_features_list2feature_sets(ptr noundef %38, ptr noundef %39, i1 noundef zeroext true)
  store ptr %40, ptr %7, align 8
  %41 = load ptr, ptr %7, align 8
  %42 = call i32 @list_for_each(ptr noundef %41, ptr noundef @_reconcile_job_features, ptr noundef %8)
  %43 = icmp slt i32 %42, 0
  br i1 %43, label %44, label %62

44:                                               ; preds = %37
  br label %45

45:                                               ; preds = %44
  %46 = load i64, ptr getelementptr inbounds nuw (%struct.slurm_conf_t, ptr @slurm_conf, i32 0, i32 42), align 8
  %47 = and i64 %46, 140737488355328
  %48 = icmp ne i64 %47, 0
  br i1 %48, label %49, label %59

49:                                               ; preds = %45
  br label %50

50:                                               ; preds = %49
  %51 = call i32 @get_log_level()
  %52 = icmp sge i32 %51, 4
  br i1 %52, label %53, label %56

53:                                               ; preds = %50
  %54 = getelementptr inbounds nuw %struct.valid_feature_args_t, ptr %8, i32 0, i32 0
  %55 = load ptr, ptr %54, align 8
  call void (i32, ptr, ...) @log_var(i32 noundef 4, ptr noundef @.str.48, ptr noundef @plugin_type, ptr noundef @__func__._xlate_job_features, ptr noundef %55)
  br label %56

56:                                               ; preds = %53, %50
  br label %57

57:                                               ; preds = %56
  br label %58

58:                                               ; preds = %57
  br label %59

59:                                               ; preds = %58, %45
  br label %60

60:                                               ; preds = %59
  br label %61

61:                                               ; preds = %60
  br label %68

62:                                               ; preds = %37
  call void @llvm.lifetime.start.p0(i64 8, ptr %10) #8
  %63 = load ptr, ptr %6, align 8
  %64 = call ptr @bitmap2node_name(ptr noundef %63)
  store ptr %64, ptr %10, align 8
  %65 = load ptr, ptr %4, align 8
  %66 = load ptr, ptr %10, align 8
  %67 = call i32 (ptr, ...) @error(ptr noundef @.str.49, ptr noundef %65, ptr noundef %66)
  call void @slurm_xfree(ptr noundef %10)
  call void @llvm.lifetime.end.p0(i64 8, ptr %10) #8
  br label %68

68:                                               ; preds = %62, %61
  br label %69

69:                                               ; preds = %68
  %70 = load ptr, ptr %7, align 8
  %71 = icmp ne ptr %70, null
  br i1 %71, label %72, label %74

72:                                               ; preds = %69
  %73 = load ptr, ptr %7, align 8
  call void @list_destroy(ptr noundef %73)
  br label %74

74:                                               ; preds = %72, %69
  store ptr null, ptr %7, align 8
  br label %75

75:                                               ; preds = %74
  br label %76

76:                                               ; preds = %75
  %77 = getelementptr inbounds nuw %struct.valid_feature_args_t, ptr %8, i32 0, i32 0
  %78 = load ptr, ptr %77, align 8
  call void @llvm.lifetime.end.p0(i64 16, ptr %8) #8
  call void @llvm.lifetime.end.p0(i64 8, ptr %7) #8
  ret ptr %78
}

; Function Attrs: nounwind uwtable
define dso_local ptr @node_features_p_job_xlate(ptr noundef %0, ptr noundef %1, ptr noundef %2) #0 {
  %4 = alloca ptr, align 8
  %5 = alloca ptr, align 8
  %6 = alloca ptr, align 8
  %7 = alloca ptr, align 8
  store ptr %0, ptr %5, align 8
  store ptr %1, ptr %6, align 8
  store ptr %2, ptr %7, align 8
  %8 = load ptr, ptr %5, align 8
  %9 = icmp ne ptr %8, null
  br i1 %9, label %11, label %10

10:                                               ; preds = %3
  store ptr null, ptr %4, align 8
  br label %30

11:                                               ; preds = %3
  %12 = load ptr, ptr %5, align 8
  %13 = call ptr @strpbrk(ptr noundef %12, ptr noundef @.str.1) #9
  %14 = icmp ne ptr %13, null
  br i1 %14, label %15, label %25

15:                                               ; preds = %11
  br label %16

16:                                               ; preds = %15
  br label %17

17:                                               ; preds = %16
  %18 = call i32 @get_log_level()
  %19 = icmp sge i32 %18, 3
  br i1 %19, label %20, label %22

20:                                               ; preds = %17
  %21 = load ptr, ptr %5, align 8
  call void (i32, ptr, ...) @log_var(i32 noundef 3, ptr noundef @.str.11, ptr noundef @plugin_type, ptr noundef @__func__.node_features_p_job_xlate, ptr noundef %21)
  br label %22

22:                                               ; preds = %20, %17
  br label %23

23:                                               ; preds = %22
  br label %24

24:                                               ; preds = %23
  store ptr null, ptr %4, align 8
  br label %30

25:                                               ; preds = %11
  %26 = load ptr, ptr %5, align 8
  %27 = load ptr, ptr %6, align 8
  %28 = load ptr, ptr %7, align 8
  %29 = call ptr @_xlate_job_features(ptr noundef %26, ptr noundef %27, ptr noundef %28)
  store ptr %29, ptr %4, align 8
  br label %30

30:                                               ; preds = %25, %24, %10
  %31 = load ptr, ptr %4, align 8
  ret ptr %31
}