; Function Attrs: nounwind uwtable
define dso_local ptr @node_features_p_job_xlate(ptr noundef %0, ptr noundef %1, ptr noundef %2) local_unnamed_addr #0 {
  %4 = alloca %struct.valid_feature_args_t, align 8
  %5 = alloca ptr, align 8
  %6 = alloca ptr, align 8
  %.not = icmp eq ptr %0, null
  br i1 %.not, label %44, label %7

7:                                                ; preds = %3
  %8 = tail call ptr @strpbrk(ptr noundef nonnull %0, ptr noundef nonnull @.str.1) #12
  %.not8 = icmp eq ptr %8, null
  br i1 %.not8, label %13, label %9

9:                                                ; preds = %7
  %10 = tail call i32 @get_log_level() #10
  %11 = icmp sgt i32 %10, 2
  br i1 %11, label %12, label %44

12:                                               ; preds = %9
  tail call void (i32, ptr, ...) @log_var(i32 noundef 3, ptr noundef nonnull @.str.11, ptr noundef nonnull @plugin_type, ptr noundef nonnull @__func__.node_features_p_job_xlate, ptr noundef nonnull %0) #10
  br label %44

13:                                               ; preds = %7
  call void @llvm.lifetime.start.p0(i64 16, ptr nonnull %4) #10
  store ptr null, ptr %4, align 8
  %14 = getelementptr inbounds nuw i8, ptr %4, i64 8
  store ptr %2, ptr %14, align 8
  %15 = load i64, ptr getelementptr inbounds nuw (i8, ptr @slurm_conf, i64 320), align 8
  %16 = and i64 %15, 140737488355328
  %.not.i = icmp eq i64 %16, 0
  br i1 %.not.i, label %26, label %17

17:                                               ; preds = %13
  call void @llvm.lifetime.start.p0(i64 8, ptr nonnull %5) #10
  %18 = tail call ptr @bitmap2node_name(ptr noundef %2) #10
  store ptr %18, ptr %5, align 8
  %19 = load i64, ptr getelementptr inbounds nuw (i8, ptr @slurm_conf, i64 320), align 8
  %20 = and i64 %19, 140737488355328
  %.not10.i = icmp eq i64 %20, 0
  br i1 %.not10.i, label %25, label %21

21:                                               ; preds = %17
  %22 = tail call i32 @get_log_level() #10
  %23 = icmp sgt i32 %22, 3
  br i1 %23, label %24, label %25

24:                                               ; preds = %21
  tail call void (i32, ptr, ...) @log_var(i32 noundef 4, ptr noundef nonnull @.str.47, ptr noundef nonnull @plugin_type, ptr noundef nonnull @__func__._xlate_job_features, ptr noundef nonnull %0, ptr noundef %18) #10
  br label %25

25:                                               ; preds = %24, %21, %17
  call void @slurm_xfree(ptr noundef nonnull %5) #10
  call void @llvm.lifetime.end.p0(i64 8, ptr nonnull %5) #10
  br label %26

26:                                               ; preds = %25, %13
  %27 = call ptr @job_features_list2feature_sets(ptr noundef nonnull %0, ptr noundef %1, i1 noundef zeroext true) #10
  %28 = call i32 @list_for_each(ptr noundef %27, ptr noundef nonnull @_reconcile_job_features, ptr noundef nonnull %4) #10
  %29 = icmp slt i32 %28, 0
  br i1 %29, label %30, label %38

30:                                               ; preds = %26
  %31 = load i64, ptr getelementptr inbounds nuw (i8, ptr @slurm_conf, i64 320), align 8
  %32 = and i64 %31, 140737488355328
  %.not11.i = icmp eq i64 %32, 0
  br i1 %.not11.i, label %41, label %33

33:                                               ; preds = %30
  %34 = call i32 @get_log_level() #10
  %35 = icmp sgt i32 %34, 3
  br i1 %35, label %36, label %41

36:                                               ; preds = %33
  %37 = load ptr, ptr %4, align 8
  call void (i32, ptr, ...) @log_var(i32 noundef 4, ptr noundef nonnull @.str.48, ptr noundef nonnull @plugin_type, ptr noundef nonnull @__func__._xlate_job_features, ptr noundef %37) #10
  br label %41

38:                                               ; preds = %26
  call void @llvm.lifetime.start.p0(i64 8, ptr nonnull %6) #10
  %39 = call ptr @bitmap2node_name(ptr noundef %2) #10
  store ptr %39, ptr %6, align 8
  %40 = call i32 (ptr, ...) @error(ptr noundef nonnull @.str.49, ptr noundef nonnull %0, ptr noundef %39) #10
  call void @slurm_xfree(ptr noundef nonnull %6) #10
  call void @llvm.lifetime.end.p0(i64 8, ptr nonnull %6) #10
  br label %41

41:                                               ; preds = %38, %36, %33, %30
  %.not12.i = icmp eq ptr %27, null
  br i1 %.not12.i, label %_xlate_job_features.exit, label %42

42:                                               ; preds = %41
  call void @list_destroy(ptr noundef nonnull %27) #10
  br label %_xlate_job_features.exit

_xlate_job_features.exit:                         ; preds = %41, %42
  %43 = load ptr, ptr %4, align 8
  call void @llvm.lifetime.end.p0(i64 16, ptr nonnull %4) #10
  br label %44

44:                                               ; preds = %9, %12, %3, %_xlate_job_features.exit
  %.0 = phi ptr [ %43, %_xlate_job_features.exit ], [ null, %3 ], [ null, %12 ], [ null, %9 ]
  ret ptr %.0
}